; Function Attrs: mustprogress nounwind uwtable
define hidden void @_ZN7Threads6verifyEv() local_unnamed_addr #0 align 2 {
  %1 = load volatile ptr, ptr @_ZN17ThreadsSMRSupport17_java_thread_listE, align 8
  tail call void asm sideeffect "", "~{memory},~{dirflag},~{fpsr},~{flags}"() #15, !srcloc !8
  %2 = getelementptr inbounds i8, ptr %1, i64 16
  %3 = load ptr, ptr %2, align 8
  %4 = getelementptr inbounds i8, ptr %1, i64 4
  %5 = load i32, ptr %4, align 4
  %6 = zext i32 %5 to i64
  %7 = getelementptr inbounds ptr, ptr %3, i64 %6
  %.not910 = icmp eq i32 %5, 0
  br i1 %.not910, label %._crit_edge, label %.lr.ph

.lr.ph:                                           ; preds = %0, %.lr.ph
  %.sroa.0.011 = phi ptr [ %10, %.lr.ph ], [ %3, %0 ]
  %8 = load i64, ptr @PrefetchScanIntervalInBytes, align 8
  tail call void asm sideeffect "prefetcht0 ($0,$1,1)", "r,r,~{dirflag},~{fpsr},~{flags}"(ptr %.sroa.0.011, i64 %8) #15, !srcloc !9
  %9 = load ptr, ptr %.sroa.0.011, align 8
  tail call void @_ZN10JavaThread6verifyEv(ptr noundef nonnull align 8 dereferenceable(1800) %9) #15
  %10 = getelementptr inbounds i8, ptr %.sroa.0.011, i64 8
  %.not9 = icmp eq ptr %10, %7
  br i1 %.not9, label %._crit_edge, label %.lr.ph

._crit_edge:                                      ; preds = %.lr.ph, %0
  %11 = load ptr, ptr @_ZN8VMThread10_vm_threadE, align 8
  %.not = icmp eq ptr %11, null
  br i1 %.not, label %13, label %12

12:                                               ; preds = %._crit_edge
  tail call void @_ZN8VMThread6verifyEv(ptr noundef nonnull align 8 dereferenceable(917) %11) #15
  br label %13

13:                                               ; preds = %12, %._crit_edge
  ret void
}